; ModuleID = '47/1718.c'
source_filename = "47/1718.c"
target datalayout = "e-m:e-p270:32:32-p271:32:32-p272:64:64-i64:64-f80:128-n8:16:32:64-S128"
target triple = "x86_64-pc-linux-gnu"

@.str = private unnamed_addr constant [3 x i8] c"%d\00", align 1
@.str.1 = private unnamed_addr constant [4 x i8] c" %d\00", align 1

; Function Attrs: noinline nounwind uwtable
define dso_local i32 @main() #0 {
  %1 = alloca i32, align 4
  %2 = alloca [100 x i32], align 16
  %3 = alloca i32, align 4
  %4 = alloca i32, align 4
  %5 = alloca i32*, align 8
  store i32 0, i32* %1, align 4
  store i32 0, i32* %4, align 4
  %6 = getelementptr inbounds [100 x i32], [100 x i32]* %2, i64 0, i64 0
  store i32* %6, i32** %5, align 8
  %7 = call i32 (i8*, ...) @__isoc99_scanf(i8* getelementptr inbounds ([3 x i8], [3 x i8]* @.str, i64 0, i64 0), i32* %3)
  br label %8

8:                                                ; preds = %18, %0
  %9 = load i32, i32* %4, align 4
  %10 = load i32, i32* %3, align 4
  %11 = icmp eq i32 %9, %10
  br i1 %11, label %12, label %13

12:                                               ; preds = %8
  br label %21

13:                                               ; preds = %8
  %14 = load i32*, i32** %5, align 8
  %15 = call i32 (i8*, ...) @__isoc99_scanf(i8* getelementptr inbounds ([3 x i8], [3 x i8]* @.str, i64 0, i64 0), i32* %14)
  %16 = load i32, i32* %4, align 4
  %17 = add nsw i32 %16, 1
  store i32 %17, i32* %4, align 4
  br label %18

18:                                               ; preds = %13
  %19 = load i32*, i32** %5, align 8
  %20 = getelementptr inbounds i32, i32* %19, i32 1
  store i32* %20, i32** %5, align 8
  br label %8

21:                                               ; preds = %12
  %22 = load i32*, i32** %5, align 8
  %23 = getelementptr inbounds i32, i32* %22, i32 -1
  store i32* %23, i32** %5, align 8
  %24 = load i32*, i32** %5, align 8
  %25 = load i32, i32* %24, align 4
  %26 = call i32 (i8*, ...) @printf(i8* getelementptr inbounds ([3 x i8], [3 x i8]* @.str, i64 0, i64 0), i32 %25)
  %27 = load i32*, i32** %5, align 8
  %28 = getelementptr inbounds i32, i32* %27, i32 -1
  store i32* %28, i32** %5, align 8
  br label %29

29:                                               ; preds = %35, %21
  %30 = load i32*, i32** %5, align 8
  %31 = load i32, i32* %30, align 4
  %32 = call i32 (i8*, ...) @printf(i8* getelementptr inbounds ([4 x i8], [4 x i8]* @.str.1, i64 0, i64 0), i32 %31)
  %33 = load i32*, i32** %5, align 8
  %34 = getelementptr inbounds i32, i32* %33, i32 -1
  store i32* %34, i32** %5, align 8
  br label %35

35:                                               ; preds = %29
  %36 = load i32*, i32** %5, align 8
  %37 = getelementptr inbounds [100 x i32], [100 x i32]* %2, i64 0, i64 0
  %38 = icmp uge i32* %36, %37
  br i1 %38, label %29, label %39

39:                                               ; preds = %35
  ret i32 0
}

declare dso_local i32 @__isoc99_scanf(i8*, ...) #1

declare dso_local i32 @printf(i8*, ...) #1


!llvm.module.flags = !{!0}
!llvm.ident = !{!1}

!0 = !{i32 1, !"wchar_size", i32 4}
!1 = !{!"clang version 10.0.0-4ubuntu1 "}
